target datalayout = "e-m:e-p270:32:32-p271:32:32-p272:64:64-i64:64-i128:128-f80:128-n8:16:32:64-S128"
target triple = "x86_64-pc-linux-gnu"

@.str.2 = private unnamed_addr constant [77 x i8] c"Behavior may be unexpected when allocating 0 bytes for ggml_aligned_malloc!\0A\00", align 1
@.str.3 = private unnamed_addr constant [25 x i8] c"unknown allocation error\00", align 1
@.str.4 = private unnamed_addr constant [24 x i8] c"invalid alignment value\00", align 1
@.str.5 = private unnamed_addr constant [20 x i8] c"insufficient memory\00", align 1
@.str.6 = private unnamed_addr constant [41 x i8] c"%s: %s (attempted to allocate %6.2f MB)\0A\00", align 1
@__func__.ggml_aligned_malloc = private unnamed_addr constant [20 x i8] c"ggml_aligned_malloc\00", align 1

; Function Attrs: nounwind uwtable
define ptr @ggml_aligned_malloc(i64 noundef %0) #5 {
  %2 = alloca ptr, align 8
  %3 = alloca i64, align 8
  %4 = alloca i32, align 4
  %5 = alloca i32, align 4
  %6 = alloca ptr, align 8
  %7 = alloca i32, align 4
  %8 = alloca ptr, align 8
  store i64 %0, ptr %3, align 8, !tbaa !19
  call void @llvm.lifetime.start.p0(i64 4, ptr %4) #14
  store i32 64, ptr %4, align 4, !tbaa !8
  %9 = load i64, ptr %3, align 8, !tbaa !19
  %10 = icmp eq i64 %9, 0
  br i1 %10, label %11, label %12

11:                                               ; preds = %1
  call void (i32, ptr, ...) @ggml_log_internal(i32 noundef 3, ptr noundef @.str.2)
  store ptr null, ptr %2, align 8
  store i32 1, ptr %5, align 4
  br label %29

12:                                               ; preds = %1
  call void @llvm.lifetime.start.p0(i64 8, ptr %6) #14
  store ptr null, ptr %6, align 8, !tbaa !18
  call void @llvm.lifetime.start.p0(i64 4, ptr %7) #14
  %13 = load i64, ptr %3, align 8, !tbaa !19
  %14 = call i32 @posix_memalign(ptr noundef %6, i64 noundef 64, i64 noundef %13) #14
  store i32 %14, ptr %7, align 4, !tbaa !8
  %15 = load i32, ptr %7, align 4, !tbaa !8
  %16 = icmp ne i32 %15, 0
  br i1 %16, label %17, label %26

17:                                               ; preds = %12
  call void @llvm.lifetime.start.p0(i64 8, ptr %8) #14
  store ptr @.str.3, ptr %8, align 8, !tbaa !3
  %18 = load i32, ptr %7, align 4, !tbaa !8
  switch i32 %18, label %21 [
    i32 22, label %19
    i32 12, label %20
  ]

19:                                               ; preds = %17
  store ptr @.str.4, ptr %8, align 8, !tbaa !3
  br label %21

20:                                               ; preds = %17
  store ptr @.str.5, ptr %8, align 8, !tbaa !3
  br label %21

21:                                               ; preds = %17, %20, %19
  %22 = load ptr, ptr %8, align 8, !tbaa !3
  %23 = load i64, ptr %3, align 8, !tbaa !19
  %24 = uitofp i64 %23 to double
  %25 = fdiv double %24, 0x4130000000000000
  call void (i32, ptr, ...) @ggml_log_internal(i32 noundef 4, ptr noundef @.str.6, ptr noundef @__func__.ggml_aligned_malloc, ptr noundef %22, double noundef %25)
  store ptr null, ptr %2, align 8
  store i32 1, ptr %5, align 4
  call void @llvm.lifetime.end.p0(i64 8, ptr %8) #14
  br label %28

26:                                               ; preds = %12
  %27 = load ptr, ptr %6, align 8, !tbaa !18
  store ptr %27, ptr %2, align 8
  store i32 1, ptr %5, align 4
  br label %28

28:                                               ; preds = %26, %21
  call void @llvm.lifetime.end.p0(i64 4, ptr %7) #14
  call void @llvm.lifetime.end.p0(i64 8, ptr %6) #14
  br label %29

29:                                               ; preds = %28, %11
  call void @llvm.lifetime.end.p0(i64 4, ptr %4) #14
  %30 = load ptr, ptr %2, align 8
  ret ptr %30
}