; Function Attrs: nounwind uwtable
define ptr @ggml_aligned_malloc(i64 noundef %0) local_unnamed_addr #4 {
  %2 = alloca ptr, align 8
  %3 = icmp eq i64 %0, 0
  br i1 %3, label %4, label %5

4:                                                ; preds = %1
  tail call void (i32, ptr, ...) @ggml_log_internal(i32 noundef 3, ptr noundef nonnull @.str.2)
  br label %15

5:                                                ; preds = %1
  call void @llvm.lifetime.start.p0(i64 8, ptr nonnull %2) #42
  store ptr null, ptr %2, align 8, !tbaa !14
  %6 = call i32 @posix_memalign(ptr noundef nonnull %2, i64 noundef 64, i64 noundef %0) #42
  switch i32 %6, label %9 [
    i32 0, label %12
    i32 22, label %7
    i32 12, label %8
  ]

7:                                                ; preds = %5
  br label %9

8:                                                ; preds = %5
  br label %9

9:                                                ; preds = %5, %8, %7
  %.0 = phi ptr [ @.str.5, %8 ], [ @.str.4, %7 ], [ @.str.3, %5 ]
  %10 = uitofp i64 %0 to double
  %11 = fmul double %10, 0x3EB0000000000000
  call void (i32, ptr, ...) @ggml_log_internal(i32 noundef 4, ptr noundef nonnull @.str.6, ptr noundef nonnull @__func__.ggml_aligned_malloc, ptr noundef nonnull %.0, double noundef %11)
  br label %14

12:                                               ; preds = %5
  %13 = load ptr, ptr %2, align 8, !tbaa !14
  br label %14

14:                                               ; preds = %12, %9
  %.1 = phi ptr [ null, %9 ], [ %13, %12 ]
  call void @llvm.lifetime.end.p0(i64 8, ptr nonnull %2) #42
  br label %15

15:                                               ; preds = %14, %4
  %.06 = phi ptr [ null, %4 ], [ %.1, %14 ]
  ret ptr %.06
}